ccopy_reg
_reconstructor
p0
(c__main__
Graph
p1
c__builtin__
object
p2
Ntp3
Rp4
(dp5
S'numberEdges'
p6
I20
sS'nodes'
p7
(lp8
g0
(c__main__
Node
p9
g2
Ntp10
Rp11
(dp12
S'energy'
p13
F32.23523504121016
sS'id'
p14
I0
sS'name'
p15
Nsbag0
(g9
g2
Ntp16
Rp17
(dp18
g13
F35.19356576123788
sg14
I1
sg15
Nsbag0
(g9
g2
Ntp19
Rp20
(dp21
g13
F39.72357520073729
sg14
I2
sg15
Nsbag0
(g9
g2
Ntp22
Rp23
(dp24
g13
F27.976200195358103
sg14
I3
sg15
Nsbag0
(g9
g2
Ntp25
Rp26
(dp27
g13
F34.78928415641764
sg14
I4
sg15
Nsbag0
(g9
g2
Ntp28
Rp29
(dp30
g13
F30.294923891922725
sg14
I5
sg15
Nsbag0
(g9
g2
Ntp31
Rp32
(dp33
g13
F23.77687067252335
sg14
I6
sg15
Nsbag0
(g9
g2
Ntp34
Rp35
(dp36
g13
F15.13915601544003
sg14
I7
sg15
Nsbag0
(g9
g2
Ntp37
Rp38
(dp39
g13
F17.017731733510114
sg14
I8
sg15
Nsbag0
(g9
g2
Ntp40
Rp41
(dp42
g13
F32.56386577604677
sg14
I9
sg15
NsbasS'adjList'
p43
(dp44
I0
(dp45
I9
F0.328630734836608
sI2
F7.488340159527127
ssI1
(dp46
I8
F-18.175834027727763
sI3
F-7.217365565879774
ssI2
(dp47
I1
F-4.530009439499409
sI3
F-11.747375005379183
sI6
F-15.946704528213935
ssI3
(dp48
I6
F-4.199329522834752
ssI4
(dp49
I9
F-2.2254183803708685
sI2
F4.93429104431965
ssI5
(dp50
I0
F1.9403111492874352
sI2
F9.428651308814562
sI4
F4.494360264494912
ssI6
(dp51
I0
F8.458364368686809
sI4
F11.012413483894285
ssI7
(dp52
I4
F19.650128140977607
ssI8
(dp53
I0
F15.217503307700046
sI4
F17.771552422907522
ssI9
(dp54
I5
F-2.268941884124043
sI7
F-17.42470976060674
sssb.