ccopy_reg
_reconstructor
p0
(c__main__
Graph
p1
c__builtin__
object
p2
Ntp3
Rp4
(dp5
S'numberEdges'
p6
I31
sS'nodes'
p7
(lp8
g0
(c__main__
Node
p9
g2
Ntp10
Rp11
(dp12
S'energy'
p13
F33.49278069597486
sS'id'
p14
I0
sS'name'
p15
Nsbag0
(g9
g2
Ntp16
Rp17
(dp18
g13
F13.12604838970233
sg14
I1
sg15
Nsbag0
(g9
g2
Ntp19
Rp20
(dp21
g13
F31.443285200896796
sg14
I2
sg15
Nsbag0
(g9
g2
Ntp22
Rp23
(dp24
g13
F19.888557395976058
sg14
I3
sg15
Nsbag0
(g9
g2
Ntp25
Rp26
(dp27
g13
F24.030458975960215
sg14
I4
sg15
Nsbag0
(g9
g2
Ntp28
Rp29
(dp30
g13
F32.50228453119139
sg14
I5
sg15
Nsbag0
(g9
g2
Ntp31
Rp32
(dp33
g13
F13.253093962241618
sg14
I6
sg15
Nsbag0
(g9
g2
Ntp34
Rp35
(dp36
g13
F27.208973292025476
sg14
I7
sg15
Nsbag0
(g9
g2
Ntp37
Rp38
(dp39
g13
F15.174372632843237
sg14
I8
sg15
Nsbag0
(g9
g2
Ntp40
Rp41
(dp42
g13
F22.722078510647982
sg14
I9
sg15
NsbasS'adjList'
p43
(dp44
I0
(dp45
I2
F-2.0494954950780624
sI4
F-9.462321720014643
sI5
F-0.9904961647834654
sI6
F-20.23968673373324
sI7
F-6.283807403949382
sI8
F-18.31840806313162
sI9
F-10.770702185326876
ssI1
(dp46
I9
F9.596030120945652
sI4
F10.904410586257885
sI5
F19.376236141489063
sI7
F14.082924902323146
ssI2
(dp47
I1
F-18.317236811194466
sI5
F1.058999330294597
sI9
F-8.721206690248813
ssI3
(dp48
I8
F-4.71418476313282
ssI4
(dp49
I2
F7.41282622493658
sI3
F-4.141901579984157
ssI5
(dp50
I4
F-8.471825555231177
sI6
F-19.249190568949775
sI7
F-5.2933112391659165
ssI7
(dp51
I8
F-12.034600659182239
sI3
F-7.320415896049418
sI4
F-3.178514316065261
sI6
F-13.955879329783858
ssI8
(dp52
I2
F16.26891256805356
sI4
F8.856086343116978
sI5
F17.327911898348155
ssI9
(dp53
I3
F-2.8335211146719246
sI4
F1.3083804653122328
sI6
F-9.468984548406365
sI7
F4.486894781377494
sssb.