ccopy_reg
_reconstructor
p0
(c__main__
Graph
p1
c__builtin__
object
p2
Ntp3
Rp4
(dp5
S'numberEdges'
p6
I26
sS'nodes'
p7
(lp8
g0
(c__main__
Node
p9
g2
Ntp10
Rp11
(dp12
S'energy'
p13
F13.462544737528727
sS'id'
p14
I0
sS'name'
p15
Nsbag0
(g9
g2
Ntp16
Rp17
(dp18
g13
F38.27158288033446
sg14
I1
sg15
Nsbag0
(g9
g2
Ntp19
Rp20
(dp21
g13
F38.111740132293946
sg14
I2
sg15
Nsbag0
(g9
g2
Ntp22
Rp23
(dp24
g13
F23.772552493261852
sg14
I3
sg15
Nsbag0
(g9
g2
Ntp25
Rp26
(dp27
g13
F25.612087582659644
sg14
I4
sg15
Nsbag0
(g9
g2
Ntp28
Rp29
(dp30
g13
F11.846903645769942
sg14
I5
sg15
Nsbag0
(g9
g2
Ntp31
Rp32
(dp33
g13
F20.62842069621189
sg14
I6
sg15
Nsbag0
(g9
g2
Ntp34
Rp35
(dp36
g13
F34.66114686694941
sg14
I7
sg15
Nsbag0
(g9
g2
Ntp37
Rp38
(dp39
g13
F13.427163855257074
sg14
I8
sg15
Nsbag0
(g9
g2
Ntp40
Rp41
(dp42
g13
F33.26798067157891
sg14
I9
sg15
NsbasS'adjList'
p43
(dp44
I0
(dp45
I1
F24.809038142805736
sI3
F10.310007755733125
sI4
F12.149542845130917
sI7
F21.19860212942068
ssI1
(dp46
I6
F-17.643162184122573
sI7
F-3.610436013385055
ssI2
(dp47
I4
F-12.499652549634302
sI6
F-17.483319436082056
ssI3
(dp48
I1
F14.499030387072612
sI2
F14.339187639032094
sI5
F-11.92564884749191
sI6
F-3.144131797049962
sI7
F10.888594373687557
sI8
F-10.345388638004778
sI9
F9.49542817831706
ssI4
(dp49
I3
F-1.839535089397792
sI5
F-13.765183936889702
ssI5
(dp50
I1
F26.424679234564522
sI2
F26.264836486524004
ssI6
(dp51
I0
F-7.165875958683163
sI5
F-8.781517050441948
ssI7
(dp52
I5
F-22.814243221179467
ssI8
(dp53
I2
F24.68457627703687
ssI9
(dp54
I1
F5.003602208755552
sI2
F4.8437594607150345
sI6
F-12.639559975367021
sssb.