ccopy_reg
_reconstructor
p0
(c__main__
Graph
p1
c__builtin__
object
p2
Ntp3
Rp4
(dp5
S'numberEdges'
p6
I26
sS'nodes'
p7
(lp8
g0
(c__main__
Node
p9
g2
Ntp10
Rp11
(dp12
S'energy'
p13
F15.96712937606984
sS'id'
p14
I0
sS'name'
p15
Nsbag0
(g9
g2
Ntp16
Rp17
(dp18
g13
F11.776923447737191
sg14
I1
sg15
Nsbag0
(g9
g2
Ntp19
Rp20
(dp21
g13
F25.934294641676765
sg14
I2
sg15
Nsbag0
(g9
g2
Ntp22
Rp23
(dp24
g13
F39.01061082405394
sg14
I3
sg15
Nsbag0
(g9
g2
Ntp25
Rp26
(dp27
g13
F32.20296242709882
sg14
I4
sg15
Nsbag0
(g9
g2
Ntp28
Rp29
(dp30
g13
F19.299854752303816
sg14
I5
sg15
Nsbag0
(g9
g2
Ntp31
Rp32
(dp33
g13
F15.942130563295327
sg14
I6
sg15
Nsbag0
(g9
g2
Ntp34
Rp35
(dp36
g13
F32.818296310803284
sg14
I7
sg15
Nsbag0
(g9
g2
Ntp37
Rp38
(dp39
g13
F24.46481258194961
sg14
I8
sg15
Nsbag0
(g9
g2
Ntp40
Rp41
(dp42
g13
F26.60577513055735
sg14
I9
sg15
NsbasS'adjList'
p43
(dp44
I0
(dp45
I2
F9.967165265606925
sI3
F23.0434814479841
sI6
F-0.024998812774512658
sI7
F16.851166934733442
ssI1
(dp46
I3
F27.23368737631675
sI5
F7.522931304566624
sI6
F4.165207115558136
sI7
F21.041372863066094
ssI2
(dp47
I1
F-14.157371193939573
sI3
F13.076316182377177
sI4
F6.268667785422053
sI5
F-6.634439889372949
sI7
F6.884001669126519
ssI3
(dp48
I5
F-19.710756071750126
ssI4
(dp49
I0
F-16.235833051028976
sI9
F-5.597187296541467
sI3
F6.807648396955123
ssI5
(dp50
I8
F5.164957829645793
ssI6
(dp51
I2
F9.992164078381437
sI4
F16.26083186380349
ssI7
(dp52
I8
F-8.353483728853675
sI9
F-6.212521180245933
ssI8
(dp53
I1
F-12.687889134212417
sI2
F1.4694820597271558
ssI9
(dp54
I1
F-14.82885168282016
sI6
F-10.663644567262024
sssb.