ccopy_reg
_reconstructor
p0
(c__main__
Graph
p1
c__builtin__
object
p2
Ntp3
Rp4
(dp5
S'numberEdges'
p6
I26
sS'nodes'
p7
(lp8
g0
(c__main__
Node
p9
g2
Ntp10
Rp11
(dp12
S'energy'
p13
F27.64452793566297
sS'id'
p14
I0
sS'name'
p15
Nsbag0
(g9
g2
Ntp16
Rp17
(dp18
g13
F37.46283686004986
sg14
I1
sg15
Nsbag0
(g9
g2
Ntp19
Rp20
(dp21
g13
F22.698213928233063
sg14
I2
sg15
Nsbag0
(g9
g2
Ntp22
Rp23
(dp24
g13
F18.330615807985566
sg14
I3
sg15
Nsbag0
(g9
g2
Ntp25
Rp26
(dp27
g13
F28.558092671513492
sg14
I4
sg15
Nsbag0
(g9
g2
Ntp28
Rp29
(dp30
g13
F10.029972116418932
sg14
I5
sg15
Nsbag0
(g9
g2
Ntp31
Rp32
(dp33
g13
F16.9527178084155
sg14
I6
sg15
Nsbag0
(g9
g2
Ntp34
Rp35
(dp36
g13
F31.29458169657013
sg14
I7
sg15
Nsbag0
(g9
g2
Ntp37
Rp38
(dp39
g13
F17.825925159672124
sg14
I8
sg15
Nsbag0
(g9
g2
Ntp40
Rp41
(dp42
g13
F28.68312015573919
sg14
I9
sg15
NsbasS'adjList'
p43
(dp44
I0
(dp45
I1
F9.81830892438689
sI3
F-9.313912127677405
sI4
F0.913564735850521
sI7
F3.6500537609071593
ssI1
(dp46
I2
F-14.764622931816799
sI5
F-27.43286474363093
ssI2
(dp47
I0
F4.946314007429908
sI4
F5.859878743280429
sI5
F-12.66824181181413
sI6
F-5.745496119817563
sI7
F8.596367768337068
sI8
F-4.872288768560939
sI9
F5.984906227506126
ssI3
(dp48
I8
F-0.5046906483134421
sI1
F19.132221052064295
sI5
F-8.300643691566634
sI9
F10.352504347753623
ssI4
(dp49
I8
F-10.732167511841368
sI9
F0.1250274842256971
sI5
F-18.52812055509456
ssI5
(dp50
I8
F7.795953043253192
ssI6
(dp51
I0
F10.691810127247471
sI4
F11.605374863097992
ssI7
(dp52
I8
F-13.468656536898006
sI6
F-14.34186388815463
ssI9
(dp53
I6
F-11.73040234732369
sssb.