ccopy_reg
_reconstructor
p0
(c__main__
Graph
p1
c__builtin__
object
p2
Ntp3
Rp4
(dp5
S'numberEdges'
p6
I51
sS'nodes'
p7
(lp8
g0
(c__main__
Node
p9
g2
Ntp10
Rp11
(dp12
S'energy'
p13
F23.671998060526402
sS'id'
p14
I0
sS'name'
p15
Nsbag0
(g9
g2
Ntp16
Rp17
(dp18
g13
F25.64090325235322
sg14
I1
sg15
Nsbag0
(g9
g2
Ntp19
Rp20
(dp21
g13
F13.570800285416613
sg14
I2
sg15
Nsbag0
(g9
g2
Ntp22
Rp23
(dp24
g13
F20.786138025196415
sg14
I3
sg15
Nsbag0
(g9
g2
Ntp25
Rp26
(dp27
g13
F14.088274363012516
sg14
I4
sg15
Nsbag0
(g9
g2
Ntp28
Rp29
(dp30
g13
F36.50309938623687
sg14
I5
sg15
Nsbag0
(g9
g2
Ntp31
Rp32
(dp33
g13
F12.957349534171444
sg14
I6
sg15
Nsbag0
(g9
g2
Ntp34
Rp35
(dp36
g13
F36.14654923034719
sg14
I7
sg15
Nsbag0
(g9
g2
Ntp37
Rp38
(dp39
g13
F13.04512611654304
sg14
I8
sg15
Nsbag0
(g9
g2
Ntp40
Rp41
(dp42
g13
F19.60132907095804
sg14
I9
sg15
Nsbag0
(g9
g2
Ntp43
Rp44
(dp45
g13
F30.922300495630008
sg14
I10
sg15
Nsbag0
(g9
g2
Ntp46
Rp47
(dp48
g13
F31.99659562905615
sg14
I11
sg15
Nsbag0
(g9
g2
Ntp49
Rp50
(dp51
g13
F37.955179635504614
sg14
I12
sg15
Nsbag0
(g9
g2
Ntp52
Rp53
(dp54
g13
F21.108182193835923
sg14
I13
sg15
Nsbag0
(g9
g2
Ntp55
Rp56
(dp57
g13
F31.743877745721147
sg14
I14
sg15
Nsbag0
(g9
g2
Ntp58
Rp59
(dp60
g13
F16.14394970960193
sg14
I15
sg15
Nsbag0
(g9
g2
Ntp61
Rp62
(dp63
g13
F19.521836377325286
sg14
I16
sg15
Nsbag0
(g9
g2
Ntp64
Rp65
(dp66
g13
F28.462356217977685
sg14
I17
sg15
Nsbag0
(g9
g2
Ntp67
Rp68
(dp69
g13
F12.116327076811718
sg14
I18
sg15
Nsbag0
(g9
g2
Ntp70
Rp71
(dp72
g13
F35.08055995461878
sg14
I19
sg15
NsbasS'adjList'
p73
(dp74
I0
(dp75
I9
F-4.070668989568361
sI11
F8.324597568529747
sI6
F-10.714648526354958
ssI1
(dp76
I3
F-4.854765227156804
ssI2
(dp77
I16
F5.951036091908673
sI17
F14.891555932561072
ssI3
(dp78
I17
F7.6762181927812705
sI2
F-7.215337739779802
ssI4
(dp79
I12
F23.866905272492097
sI14
F17.65560338270863
ssI5
(dp80
I8
F-23.45797326969383
sI4
F-22.414825023224353
ssI6
(dp81
I17
F15.505006683806242
sI18
F-0.8410224573597258
sI13
F8.150832659664479
ssI7
(dp82
I1
F-10.505645977993971
sI10
F-5.224248734717182
sI11
F-4.149953601291042
sI15
F-20.00259952074526
ssI8
(dp83
I2
F0.5256741688735733
sI13
F8.063056077292883
sI7
F23.101423113804152
ssI9
(dp84
I10
F11.320971424671967
sI14
F12.142548674763106
sI7
F16.54522015938915
ssI10
(dp85
I8
F-17.877174379086966
sI1
F-5.281397243276789
sI5
F5.580798890606861
sI14
F0.8215772500911385
sI15
F-14.778350786028078
ssI11
(dp86
I1
F-6.35569237670293
sI2
F-18.425795343639535
sI17
F-3.534239411078463
ssI12
(dp87
I16
F-18.433343258179328
sI10
F-7.032879139874606
ssI13
(dp88
I9
F-1.5068531228778816
sI2
F-7.537381908419309
sI3
F-0.3220441686395077
ssI14
(dp89
I0
F-8.071879685194745
sI12
F6.211301889783467
ssI15
(dp90
I17
F12.318406508375755
sI2
F-2.573149424185317
ssI16
(dp91
I8
F-6.476710260782246
ssI17
(dp92
I4
F-14.37408185496517
sI7
F7.684193012369505
ssI18
(dp93
I19
F22.96423287780706
sI12
F25.838852558692896
sI15
F4.027622632790212
ssI19
(dp94
I16
F-15.558723577293492
sI1
F-9.439656702265559
sI13
F-13.972377760782855
sssb.