ccopy_reg
_reconstructor
p0
(c__main__
Graph
p1
c__builtin__
object
p2
Ntp3
Rp4
(dp5
S'numberEdges'
p6
I51
sS'nodes'
p7
(lp8
g0
(c__main__
Node
p9
g2
Ntp10
Rp11
(dp12
S'energy'
p13
F17.109292433379824
sS'id'
p14
I0
sS'name'
p15
Nsbag0
(g9
g2
Ntp16
Rp17
(dp18
g13
F36.1601460033296
sg14
I1
sg15
Nsbag0
(g9
g2
Ntp19
Rp20
(dp21
g13
F30.025407972389157
sg14
I2
sg15
Nsbag0
(g9
g2
Ntp22
Rp23
(dp24
g13
F27.673068781075717
sg14
I3
sg15
Nsbag0
(g9
g2
Ntp25
Rp26
(dp27
g13
F10.888812023836401
sg14
I4
sg15
Nsbag0
(g9
g2
Ntp28
Rp29
(dp30
g13
F33.14815587425913
sg14
I5
sg15
Nsbag0
(g9
g2
Ntp31
Rp32
(dp33
g13
F18.350540594031386
sg14
I6
sg15
Nsbag0
(g9
g2
Ntp34
Rp35
(dp36
g13
F15.513778202466803
sg14
I7
sg15
Nsbag0
(g9
g2
Ntp37
Rp38
(dp39
g13
F31.722694092366076
sg14
I8
sg15
Nsbag0
(g9
g2
Ntp40
Rp41
(dp42
g13
F36.54280346803736
sg14
I9
sg15
Nsbag0
(g9
g2
Ntp43
Rp44
(dp45
g13
F33.28316897063473
sg14
I10
sg15
Nsbag0
(g9
g2
Ntp46
Rp47
(dp48
g13
F25.346219212135942
sg14
I11
sg15
Nsbag0
(g9
g2
Ntp49
Rp50
(dp51
g13
F13.83632059180057
sg14
I12
sg15
Nsbag0
(g9
g2
Ntp52
Rp53
(dp54
g13
F29.00248408919049
sg14
I13
sg15
Nsbag0
(g9
g2
Ntp55
Rp56
(dp57
g13
F25.49583534892168
sg14
I14
sg15
Nsbag0
(g9
g2
Ntp58
Rp59
(dp60
g13
F25.923664213335925
sg14
I15
sg15
Nsbag0
(g9
g2
Ntp61
Rp62
(dp63
g13
F13.156616948875705
sg14
I16
sg15
Nsbag0
(g9
g2
Ntp64
Rp65
(dp66
g13
F35.96720307670078
sg14
I17
sg15
Nsbag0
(g9
g2
Ntp67
Rp68
(dp69
g13
F23.02824233054141
sg14
I18
sg15
Nsbag0
(g9
g2
Ntp70
Rp71
(dp72
g13
F38.054610757282525
sg14
I19
sg15
NsbasS'adjList'
p73
(dp74
I0
(dp75
I2
F12.916115539009333
sI6
F1.241248160651562
sI8
F14.613401658986252
sI10
F16.17387653725491
sI14
F8.386542915541856
sI15
F8.814371779956101
sI18
F5.9189498971615855
sI19
F20.9453183239027
ssI1
(dp76
I0
F-19.050853569949776
sI14
F-10.66431065440792
ssI2
(dp77
I17
F5.94179510431162
sI3
F-2.3523391913134404
sI12
F-16.18908738058859
sI1
F6.134738030940444
ssI3
(dp78
I19
F10.381541976206808
sI13
F1.329415308114772
sI14
F-2.1772334321540363
sI5
F5.475087093183415
ssI4
(dp79
I1
F25.2713339794932
sI19
F27.165798733446124
sI12
F2.947508567964169
ssI5
(dp80
I8
F-1.4254617818930555
sI1
F3.011990129070469
ssI6
(dp81
I9
F18.192262874005976
sI12
F-4.514220002230816
sI15
F7.573123619304539
ssI7
(dp82
I17
F20.453424874233974
sI18
F7.514464128074607
sI13
F13.488705886723686
sI1
F20.646367800862798
ssI8
(dp83
I4
F-20.833882068529675
sI13
F-2.7202100031755876
sI7
F-16.208915889899274
ssI9
(dp84
I1
F-0.3826574647077621
sI5
F-3.394647593778231
ssI10
(dp85
I16
F-20.12655202175903
sI2
F-3.257760998245576
sI5
F-0.13501309637560155
sI13
F-4.280684881444245
sI7
F-17.76939076816793
ssI11
(dp86
I12
F-11.509898620335372
ssI12
(dp87
I16
F-0.6797036429248653
sI18
F9.19192173874084
ssI14
(dp88
I9
F11.046968119115682
sI2
F4.529572623467477
sI7
F-9.982057146454878
ssI15
(dp89
I9
F10.619139254701437
ssI16
(dp90
I11
F12.189602263260237
ssI18
(dp91
I8
F8.694451761824666
sI9
F13.514561137495953
ssI19
(dp92
I5
F-4.906454883023393
sssb.