ccopy_reg
_reconstructor
p0
(c__main__
Graph
p1
c__builtin__
object
p2
Ntp3
Rp4
(dp5
S'numberEdges'
p6
I51
sS'nodes'
p7
(lp8
g0
(c__main__
Node
p9
g2
Ntp10
Rp11
(dp12
S'energy'
p13
F11.022817889757144
sS'id'
p14
I0
sS'name'
p15
Nsbag0
(g9
g2
Ntp16
Rp17
(dp18
g13
F37.71621040645586
sg14
I1
sg15
Nsbag0
(g9
g2
Ntp19
Rp20
(dp21
g13
F20.205921248963165
sg14
I2
sg15
Nsbag0
(g9
g2
Ntp22
Rp23
(dp24
g13
F22.546755571123857
sg14
I3
sg15
Nsbag0
(g9
g2
Ntp25
Rp26
(dp27
g13
F34.59212914323852
sg14
I4
sg15
Nsbag0
(g9
g2
Ntp28
Rp29
(dp30
g13
F32.22566448905985
sg14
I5
sg15
Nsbag0
(g9
g2
Ntp31
Rp32
(dp33
g13
F32.53308973167298
sg14
I6
sg15
Nsbag0
(g9
g2
Ntp34
Rp35
(dp36
g13
F10.662590779176872
sg14
I7
sg15
Nsbag0
(g9
g2
Ntp37
Rp38
(dp39
g13
F15.751412193691735
sg14
I8
sg15
Nsbag0
(g9
g2
Ntp40
Rp41
(dp42
g13
F18.34374767270159
sg14
I9
sg15
Nsbag0
(g9
g2
Ntp43
Rp44
(dp45
g13
F12.546215264915396
sg14
I10
sg15
Nsbag0
(g9
g2
Ntp46
Rp47
(dp48
g13
F13.483898244182555
sg14
I11
sg15
Nsbag0
(g9
g2
Ntp49
Rp50
(dp51
g13
F19.470195716879555
sg14
I12
sg15
Nsbag0
(g9
g2
Ntp52
Rp53
(dp54
g13
F18.091936971930636
sg14
I13
sg15
Nsbag0
(g9
g2
Ntp55
Rp56
(dp57
g13
F36.82611904010675
sg14
I14
sg15
Nsbag0
(g9
g2
Ntp58
Rp59
(dp60
g13
F32.77620881597185
sg14
I15
sg15
Nsbag0
(g9
g2
Ntp61
Rp62
(dp63
g13
F15.272833378082808
sg14
I16
sg15
Nsbag0
(g9
g2
Ntp64
Rp65
(dp66
g13
F14.553582744041693
sg14
I17
sg15
Nsbag0
(g9
g2
Ntp67
Rp68
(dp69
g13
F20.897643746486224
sg14
I18
sg15
Nsbag0
(g9
g2
Ntp70
Rp71
(dp72
g13
F26.497311073830684
sg14
I19
sg15
NsbasS'adjList'
p73
(dp74
I0
(dp75
I9
F7.320929782944445
sI18
F9.87482585672908
sI12
F8.447377827122411
sI17
F3.5307648542845484
ssI2
(dp76
I1
F17.510289157492693
sI15
F12.570287567008684
ssI3
(dp77
I2
F-2.340834322160692
ssI4
(dp78
I19
F-8.09481806940784
sI13
F-16.500192171307887
sI15
F-1.8159203272666744
ssI5
(dp79
I2
F-12.019743240096687
sI14
F4.600454551046894
sI15
F0.5505443269119965
ssI6
(dp80
I1
F5.183120674782877
sI2
F-12.327168482709816
ssI7
(dp81
I19
F15.834720294653811
sI15
F22.113618036794975
ssI8
(dp82
I10
F-3.2051969287763384
ssI9
(dp83
I19
F8.153563401129095
sI4
F16.248381470536934
sI5
F13.881916816358263
sI13
F-0.25181070077095313
ssI10
(dp84
I6
F19.986874466757584
ssI12
(dp85
I4
F15.121933426358968
sI7
F-8.807604937702683
sI8
F-3.7187835231878204
sI9
F-1.126448044177966
sI10
F-6.923980451964159
sI14
F17.35592332322719
sI16
F-4.197362338796747
ssI13
(dp86
I18
F2.8057067745555884
sI11
F-4.608038727748081
sI7
F-7.429346192753764
ssI14
(dp87
I8
F-21.074706846415012
ssI15
(dp88
I11
F-19.292310571789294
sI17
F-18.222626071930158
sI10
F-20.229993551056452
sI3
F-10.229453244847992
sI18
F-11.878565069485624
ssI16
(dp89
I17
F-0.7192506340411153
sI11
F-1.788935133900253
sI13
F2.819103593847828
sI15
F17.50337543788904
ssI17
(dp90
I8
F1.1978294496500421
sI9
F3.7901649286598964
sI10
F-2.0073674791262963
sI18
F6.344061002444532
ssI18
(dp91
I6
F11.635445985186756
sI7
F-10.235052967309352
ssI19
(dp92
I11
F-13.013412829648129
sI15
F6.278897742141165
sssb.