ccopy_reg
_reconstructor
p0
(c__main__
Graph
p1
c__builtin__
object
p2
Ntp3
Rp4
(dp5
S'numberEdges'
p6
I101
sS'nodes'
p7
(lp8
g0
(c__main__
Node
p9
g2
Ntp10
Rp11
(dp12
S'energy'
p13
F15.101270076358283
sS'id'
p14
I0
sS'name'
p15
Nsbag0
(g9
g2
Ntp16
Rp17
(dp18
g13
F19.237729698573897
sg14
I1
sg15
Nsbag0
(g9
g2
Ntp19
Rp20
(dp21
g13
F13.052859810574628
sg14
I2
sg15
Nsbag0
(g9
g2
Ntp22
Rp23
(dp24
g13
F21.963858073964104
sg14
I3
sg15
Nsbag0
(g9
g2
Ntp25
Rp26
(dp27
g13
F35.300698549633374
sg14
I4
sg15
Nsbag0
(g9
g2
Ntp28
Rp29
(dp30
g13
F20.11730125056215
sg14
I5
sg15
Nsbag0
(g9
g2
Ntp31
Rp32
(dp33
g13
F31.626782485054065
sg14
I6
sg15
Nsbag0
(g9
g2
Ntp34
Rp35
(dp36
g13
F29.000904739499084
sg14
I7
sg15
Nsbag0
(g9
g2
Ntp37
Rp38
(dp39
g13
F16.1119746736382
sg14
I8
sg15
Nsbag0
(g9
g2
Ntp40
Rp41
(dp42
g13
F21.575070267396868
sg14
I9
sg15
Nsbag0
(g9
g2
Ntp43
Rp44
(dp45
g13
F14.252205072537649
sg14
I10
sg15
Nsbag0
(g9
g2
Ntp46
Rp47
(dp48
g13
F27.649263699105937
sg14
I11
sg15
Nsbag0
(g9
g2
Ntp49
Rp50
(dp51
g13
F10.447343290277852
sg14
I12
sg15
Nsbag0
(g9
g2
Ntp52
Rp53
(dp54
g13
F29.058179455918918
sg14
I13
sg15
Nsbag0
(g9
g2
Ntp55
Rp56
(dp57
g13
F10.147503905386035
sg14
I14
sg15
Nsbag0
(g9
g2
Ntp58
Rp59
(dp60
g13
F18.58097840580948
sg14
I15
sg15
Nsbag0
(g9
g2
Ntp61
Rp62
(dp63
g13
F22.5736246148046
sg14
I16
sg15
Nsbag0
(g9
g2
Ntp64
Rp65
(dp66
g13
F20.827797418872343
sg14
I17
sg15
Nsbag0
(g9
g2
Ntp67
Rp68
(dp69
g13
F33.086486193196784
sg14
I18
sg15
Nsbag0
(g9
g2
Ntp70
Rp71
(dp72
g13
F38.98966624889157
sg14
I19
sg15
Nsbag0
(g9
g2
Ntp73
Rp74
(dp75
g13
F34.80306327711535
sg14
I20
sg15
Nsbag0
(g9
g2
Ntp76
Rp77
(dp78
g13
F26.51160908382333
sg14
I21
sg15
Nsbag0
(g9
g2
Ntp79
Rp80
(dp81
g13
F21.916597752669837
sg14
I22
sg15
Nsbag0
(g9
g2
Ntp82
Rp83
(dp84
g13
F21.194737782308934
sg14
I23
sg15
Nsbag0
(g9
g2
Ntp85
Rp86
(dp87
g13
F22.265829685706315
sg14
I24
sg15
Nsbag0
(g9
g2
Ntp88
Rp89
(dp90
g13
F17.641964390231152
sg14
I25
sg15
Nsbag0
(g9
g2
Ntp91
Rp92
(dp93
g13
F31.62949219088639
sg14
I26
sg15
Nsbag0
(g9
g2
Ntp94
Rp95
(dp96
g13
F24.587860721691058
sg14
I27
sg15
Nsbag0
(g9
g2
Ntp97
Rp98
(dp99
g13
F28.13138596135279
sg14
I28
sg15
Nsbag0
(g9
g2
Ntp100
Rp101
(dp102
g13
F12.807735803829923
sg14
I29
sg15
Nsbag0
(g9
g2
Ntp103
Rp104
(dp105
g13
F10.688970354440723
sg14
I30
sg15
Nsbag0
(g9
g2
Ntp106
Rp107
(dp108
g13
F24.3946177863819
sg14
I31
sg15
Nsbag0
(g9
g2
Ntp109
Rp110
(dp111
g13
F12.575595415248236
sg14
I32
sg15
Nsbag0
(g9
g2
Ntp112
Rp113
(dp114
g13
F31.033588877264584
sg14
I33
sg15
Nsbag0
(g9
g2
Ntp115
Rp116
(dp117
g13
F19.084429858553094
sg14
I34
sg15
Nsbag0
(g9
g2
Ntp118
Rp119
(dp120
g13
F35.38650363072273
sg14
I35
sg15
Nsbag0
(g9
g2
Ntp121
Rp122
(dp123
g13
F23.93666576469982
sg14
I36
sg15
Nsbag0
(g9
g2
Ntp124
Rp125
(dp126
g13
F39.35647409534597
sg14
I37
sg15
Nsbag0
(g9
g2
Ntp127
Rp128
(dp129
g13
F11.201318186278975
sg14
I38
sg15
Nsbag0
(g9
g2
Ntp130
Rp131
(dp132
g13
F30.35971447203298
sg14
I39
sg15
NsbasS'adjList'
p133
(dp134
I0
(dp135
I37
F24.25520401898769
sI39
F15.258444395674697
sI8
F1.0107045972799185
sI9
F6.473800191038585
sI11
F12.547993622747654
sI16
F7.472354538446318
ssI1
(dp136
I36
F4.698936066125924
ssI2
(dp137
I32
F-0.477264395326392
sI25
F4.589104579656524
sI23
F8.141877971734306
ssI3
(dp138
I32
F-9.388262658715869
sI2
F-8.910998263389477
sI23
F-0.7691202916551703
ssI4
(dp139
I25
F-17.658734159402222
ssI5
(dp140
I11
F7.531962448543787
sI17
F0.7104961683101934
sI19
F18.872364998329417
sI6
F11.509481234491915
sI7
F8.883603488936934
ssI6
(dp141
I10
F-17.374577412516416
sI28
F-3.495396523701274
ssI8
(dp142
I18
F16.974511519558583
sI14
F-5.964470768252166
ssI9
(dp143
I18
F11.511415925799916
sI21
F4.936538816426463
sI38
F-10.373752081117892
ssI10
(dp144
I33
F16.781383804726936
sI5
F5.865096178024501
sI11
F13.397058626568288
sI12
F-3.804861782259797
sI18
F18.834281120659135
sI26
F17.37728711834874
sI30
F-3.5632347180969255
ssI11
(dp145
I26
F3.9802284917804513
sI29
F-14.841527895276014
sI23
F-6.454525916797003
ssI12
(dp146
I14
F-0.2998393848918166
ssI13
(dp147
I16
F-6.484554841114317
ssI14
(dp148
I27
F14.440356816305023
sI20
F24.655559371729314
ssI15
(dp149
I24
F3.6848512798968365
sI1
F0.6567512927644188
sI3
F3.382879668154626
sI35
F16.80552522491325
ssI16
(dp150
I8
F-6.4616499411663995
sI34
F-3.489194756251507
sI15
F-3.9926462089951222
sI6
F9.053157870249464
sI7
F6.427280124694484
ssI17
(dp151
I10
F-6.575592346334695
sI15
F-2.246819013062865
ssI18
(dp152
I17
F-12.25868877432444
sI30
F-22.39751583875606
ssI19
(dp153
I3
F-17.025808174927462
sI35
F-3.603162618168838
sI14
F-28.84216234350553
ssI20
(dp154
I8
F-18.691088603477148
sI28
F-6.671677315762558
sI31
F-10.408445490733449
ssI21
(dp155
I32
F-13.936013668575095
sI17
F-5.683811664950987
sI14
F-16.364105178437296
ssI22
(dp156
I17
F-1.0888003337974936
sI26
F9.712894438216551
sI12
F-11.469254462391985
ssI23
(dp157
I25
F-3.552773392077782
sI27
F3.393122939382124
sI31
F3.1998800040729662
ssI24
(dp158
I1
F-3.0280999871324177
sI36
F1.6708360789935064
sI31
F2.1287881006755853
ssI25
(dp159
I32
F-5.066368974982916
sI22
F4.274633362438685
sI37
F21.71450970511482
sI30
F-6.952994035790429
ssI27
(dp160
I24
F-2.322031035984743
sI36
F-0.6511949569912368
ssI28
(dp161
I22
F-6.214788208682954
ssI30
(dp162
I2
F2.3638894561339043
sI4
F24.61172819519265
sI14
F-0.5414664490546883
ssI31
(dp163
I26
F7.234874404504488
ssI32
(dp164
I34
F6.508834443304858
sI35
F22.81090821547449
sI7
F16.425309324250847
ssI33
(dp165
I27
F-6.445728155573526
sI13
F-1.9754094213456668
ssI34
(dp166
I37
F20.27204423679288
ssI35
(dp167
I30
F-24.697533276282005
ssI36
(dp168
I0
F-8.835395688341539
sI12
F-13.48932247442197
sI14
F-13.789161859313786
ssI37
(dp169
I10
F-25.104269022808325
sI18
F-6.2699879021491896
sI14
F-29.20897018995994
sI31
F-14.961856308964073
ssI38
(dp170
I22
F10.715279566390862
sI7
F17.79958655322011
ssI39
(dp171
I1
F-11.121984773459083
sI4
F4.940984077600394
sI20
F4.443348805082369
sssb.