ccopy_reg
_reconstructor
p0
(c__main__
Graph
p1
c__builtin__
object
p2
Ntp3
Rp4
(dp5
S'numberEdges'
p6
I101
sS'nodes'
p7
(lp8
g0
(c__main__
Node
p9
g2
Ntp10
Rp11
(dp12
S'energy'
p13
F18.55906093709829
sS'id'
p14
I0
sS'name'
p15
Nsbag0
(g9
g2
Ntp16
Rp17
(dp18
g13
F13.334135123620882
sg14
I1
sg15
Nsbag0
(g9
g2
Ntp19
Rp20
(dp21
g13
F23.95148174357893
sg14
I2
sg15
Nsbag0
(g9
g2
Ntp22
Rp23
(dp24
g13
F32.34747273535854
sg14
I3
sg15
Nsbag0
(g9
g2
Ntp25
Rp26
(dp27
g13
F32.705395934613534
sg14
I4
sg15
Nsbag0
(g9
g2
Ntp28
Rp29
(dp30
g13
F21.832470397706153
sg14
I5
sg15
Nsbag0
(g9
g2
Ntp31
Rp32
(dp33
g13
F10.39144258956692
sg14
I6
sg15
Nsbag0
(g9
g2
Ntp34
Rp35
(dp36
g13
F36.78834702569691
sg14
I7
sg15
Nsbag0
(g9
g2
Ntp37
Rp38
(dp39
g13
F34.558778652084555
sg14
I8
sg15
Nsbag0
(g9
g2
Ntp40
Rp41
(dp42
g13
F11.200729172067934
sg14
I9
sg15
Nsbag0
(g9
g2
Ntp43
Rp44
(dp45
g13
F32.32569023796052
sg14
I10
sg15
Nsbag0
(g9
g2
Ntp46
Rp47
(dp48
g13
F22.499997565846556
sg14
I11
sg15
Nsbag0
(g9
g2
Ntp49
Rp50
(dp51
g13
F36.14645083380614
sg14
I12
sg15
Nsbag0
(g9
g2
Ntp52
Rp53
(dp54
g13
F24.596110126961513
sg14
I13
sg15
Nsbag0
(g9
g2
Ntp55
Rp56
(dp57
g13
F36.37242808288647
sg14
I14
sg15
Nsbag0
(g9
g2
Ntp58
Rp59
(dp60
g13
F38.715159056493874
sg14
I15
sg15
Nsbag0
(g9
g2
Ntp61
Rp62
(dp63
g13
F18.546041785794735
sg14
I16
sg15
Nsbag0
(g9
g2
Ntp64
Rp65
(dp66
g13
F36.89094469173291
sg14
I17
sg15
Nsbag0
(g9
g2
Ntp67
Rp68
(dp69
g13
F27.266124555000257
sg14
I18
sg15
Nsbag0
(g9
g2
Ntp70
Rp71
(dp72
g13
F12.531282151573617
sg14
I19
sg15
Nsbag0
(g9
g2
Ntp73
Rp74
(dp75
g13
F15.236829457698608
sg14
I20
sg15
Nsbag0
(g9
g2
Ntp76
Rp77
(dp78
g13
F30.793032068674282
sg14
I21
sg15
Nsbag0
(g9
g2
Ntp79
Rp80
(dp81
g13
F16.644601243512994
sg14
I22
sg15
Nsbag0
(g9
g2
Ntp82
Rp83
(dp84
g13
F26.14901909412951
sg14
I23
sg15
Nsbag0
(g9
g2
Ntp85
Rp86
(dp87
g13
F22.89863479600922
sg14
I24
sg15
Nsbag0
(g9
g2
Ntp88
Rp89
(dp90
g13
F23.59610385601706
sg14
I25
sg15
Nsbag0
(g9
g2
Ntp91
Rp92
(dp93
g13
F20.08321735057907
sg14
I26
sg15
Nsbag0
(g9
g2
Ntp94
Rp95
(dp96
g13
F34.62553347337433
sg14
I27
sg15
Nsbag0
(g9
g2
Ntp97
Rp98
(dp99
g13
F32.35950409413394
sg14
I28
sg15
Nsbag0
(g9
g2
Ntp100
Rp101
(dp102
g13
F37.584176843262625
sg14
I29
sg15
Nsbag0
(g9
g2
Ntp103
Rp104
(dp105
g13
F27.253084628815277
sg14
I30
sg15
Nsbag0
(g9
g2
Ntp106
Rp107
(dp108
g13
F20.670143497258803
sg14
I31
sg15
Nsbag0
(g9
g2
Ntp109
Rp110
(dp111
g13
F34.5257393133248
sg14
I32
sg15
Nsbag0
(g9
g2
Ntp112
Rp113
(dp114
g13
F31.38366244590199
sg14
I33
sg15
Nsbag0
(g9
g2
Ntp115
Rp116
(dp117
g13
F10.370810548542734
sg14
I34
sg15
Nsbag0
(g9
g2
Ntp118
Rp119
(dp120
g13
F27.8939500352758
sg14
I35
sg15
Nsbag0
(g9
g2
Ntp121
Rp122
(dp123
g13
F24.60160770752595
sg14
I36
sg15
Nsbag0
(g9
g2
Ntp124
Rp125
(dp126
g13
F36.420133897175106
sg14
I37
sg15
Nsbag0
(g9
g2
Ntp127
Rp128
(dp129
g13
F26.18863102057322
sg14
I38
sg15
Nsbag0
(g9
g2
Ntp130
Rp131
(dp132
g13
F29.162477805992108
sg14
I39
sg15
NsbasS'adjList'
p133
(dp134
I0
(dp135
I24
F4.339573858910928
sI26
F1.5241564134807781
sI4
F14.146334997515243
sI10
F13.766629300862231
ssI1
(dp136
I27
F21.29139834975345
sI15
F25.381023932872992
ssI2
(dp137
I28
F8.408022350555008
ssI3
(dp138
I12
F3.7989780984476056
sI37
F4.072661161816569
sI30
F-5.09438810654326
ssI4
(dp139
I16
F-14.1593541488188
sI25
F-9.109292078596475
sI9
F-21.5046667625456
ssI6
(dp140
I16
F8.154599196227815
sI29
F27.192734253695704
sI15
F28.323716466926953
ssI7
(dp141
I21
F-5.995314957022625
sI29
F0.7958298175657177
ssI8
(dp142
I2
F-10.607296908505624
ssI9
(dp143
I5
F10.631741225638219
sI6
F-0.8092865825010147
ssI10
(dp144
I32
F2.2000490753642765
sI33
F-0.942027792058532
sI34
F-21.954879689417787
sI4
F0.3797056966530121
sI6
F-21.9342476483936
sI11
F-9.825692672113966
sI12
F3.82076059584562
sI23
F-6.176671143831012
ssI11
(dp145
I3
F9.84747516951198
sI12
F13.646453267959586
sI30
F4.753087062968721
ssI12
(dp146
I34
F-25.775640285263407
sI30
F-8.893366204990865
ssI13
(dp147
I33
F6.787552318940477
sI12
F11.55034070684463
sI31
F-3.9259666297027103
ssI14
(dp148
I25
F-12.776324226869413
ssI15
(dp149
I8
F-4.156380404409319
sI35
F-10.821209021218074
ssI16
(dp150
I39
F10.616436020197373
ssI17
(dp151
I16
F-18.344902905938177
sI35
F-8.996994656457112
sI30
F-9.637860062917635
ssI18
(dp152
I23
F-1.1171054608707465
sI19
F-14.73484240342664
sI31
F-6.595981057741454
ssI19
(dp153
I20
F2.7055473061249913
ssI20
(dp154
I29
F22.347347385564017
ssI21
(dp155
I2
F-6.841550325095351
sI38
F-4.604401048101064
sI8
F3.765746583410273
sI12
F5.35341876513186
sI18
F-3.5269075136740256
sI19
F-18.261749917100666
ssI23
(dp156
I33
F5.23464335177248
sI13
F-1.5529089671679976
ssI24
(dp157
I1
F-9.564499672388337
sI18
F4.367489758991038
sI36
F1.7029729115167314
sI14
F13.473793286877253
sI7
F13.889712229687689
ssI25
(dp158
I38
F2.5925271645561594
sI22
F-6.951502612504065
ssI26
(dp159
I21
F10.709814718095213
sI5
F1.749253047127084
ssI28
(dp160
I18
F-5.093379539133682
sI12
F3.786946739672203
sI31
F-11.689360596875137
ssI29
(dp161
I24
F-14.685542047253406
sI10
F-5.258486605302103
sI21
F-6.791144774588343
sI14
F-1.2117487603761532
sI31
F-16.914033346003823
ssI30
(dp162
I33
F4.130577817086714
sI2
F-3.3016028852363455
sI7
F9.535262396881631
ssI31
(dp163
I27
F13.95538997611553
ssI32
(dp164
I17
F2.3652053784081133
sI20
F-19.28890985562619
ssI33
(dp165
I17
F5.507282245830922
sI38
F-5.1950314253287715
ssI34
(dp166
I24
F12.527824247466485
sI19
F2.1604716030308833
sI20
F4.8660189091558745
sI39
F18.791667257449376
ssI35
(dp167
I2
F-3.942468291696869
sI20
F-12.657120577577192
sI5
F-6.061479637569647
sI37
F8.526183861899305
ssI36
(dp168
I11
F-2.1016101416793944
sI19
F-12.070325555952333
sI14
F11.770820375360522
ssI37
(dp169
I2
F-12.468652153596175
sI19
F-23.88885174560149
sI38
F-10.231502876601887
sI31
F-15.749990399916303
ssI38
(dp170
I35
F1.7053190147025816
sI22
F-9.544029777060224
sI23
F-0.039611926443708256
ssI39
(dp171
I10
F3.1632124319684145
sssb.