ccopy_reg
_reconstructor
p0
(c__main__
Graph
p1
c__builtin__
object
p2
Ntp3
Rp4
(dp5
S'numberEdges'
p6
I101
sS'nodes'
p7
(lp8
g0
(c__main__
Node
p9
g2
Ntp10
Rp11
(dp12
S'energy'
p13
F29.044244157001298
sS'id'
p14
I0
sS'name'
p15
Nsbag0
(g9
g2
Ntp16
Rp17
(dp18
g13
F25.704763457162983
sg14
I1
sg15
Nsbag0
(g9
g2
Ntp19
Rp20
(dp21
g13
F36.11773577646042
sg14
I2
sg15
Nsbag0
(g9
g2
Ntp22
Rp23
(dp24
g13
F28.147014735726756
sg14
I3
sg15
Nsbag0
(g9
g2
Ntp25
Rp26
(dp27
g13
F21.63088404138064
sg14
I4
sg15
Nsbag0
(g9
g2
Ntp28
Rp29
(dp30
g13
F11.547435656056086
sg14
I5
sg15
Nsbag0
(g9
g2
Ntp31
Rp32
(dp33
g13
F30.589212258753534
sg14
I6
sg15
Nsbag0
(g9
g2
Ntp34
Rp35
(dp36
g13
F35.259190984119314
sg14
I7
sg15
Nsbag0
(g9
g2
Ntp37
Rp38
(dp39
g13
F20.715664373340438
sg14
I8
sg15
Nsbag0
(g9
g2
Ntp40
Rp41
(dp42
g13
F24.95372929077649
sg14
I9
sg15
Nsbag0
(g9
g2
Ntp43
Rp44
(dp45
g13
F14.27488402289545
sg14
I10
sg15
Nsbag0
(g9
g2
Ntp46
Rp47
(dp48
g13
F13.62211465536847
sg14
I11
sg15
Nsbag0
(g9
g2
Ntp49
Rp50
(dp51
g13
F25.719951364032795
sg14
I12
sg15
Nsbag0
(g9
g2
Ntp52
Rp53
(dp54
g13
F34.590636470743995
sg14
I13
sg15
Nsbag0
(g9
g2
Ntp55
Rp56
(dp57
g13
F18.758888856815712
sg14
I14
sg15
Nsbag0
(g9
g2
Ntp58
Rp59
(dp60
g13
F34.481377658702144
sg14
I15
sg15
Nsbag0
(g9
g2
Ntp61
Rp62
(dp63
g13
F16.172030732366714
sg14
I16
sg15
Nsbag0
(g9
g2
Ntp64
Rp65
(dp66
g13
F30.236663206496928
sg14
I17
sg15
Nsbag0
(g9
g2
Ntp67
Rp68
(dp69
g13
F27.074542127945307
sg14
I18
sg15
Nsbag0
(g9
g2
Ntp70
Rp71
(dp72
g13
F17.527411456152016
sg14
I19
sg15
Nsbag0
(g9
g2
Ntp73
Rp74
(dp75
g13
F14.490131263199531
sg14
I20
sg15
Nsbag0
(g9
g2
Ntp76
Rp77
(dp78
g13
F19.342808464879447
sg14
I21
sg15
Nsbag0
(g9
g2
Ntp79
Rp80
(dp81
g13
F22.054022293545394
sg14
I22
sg15
Nsbag0
(g9
g2
Ntp82
Rp83
(dp84
g13
F25.81543220392613
sg14
I23
sg15
Nsbag0
(g9
g2
Ntp85
Rp86
(dp87
g13
F36.05816255988312
sg14
I24
sg15
Nsbag0
(g9
g2
Ntp88
Rp89
(dp90
g13
F14.04244071138592
sg14
I25
sg15
Nsbag0
(g9
g2
Ntp91
Rp92
(dp93
g13
F23.34884324416164
sg14
I26
sg15
Nsbag0
(g9
g2
Ntp94
Rp95
(dp96
g13
F15.104487946557384
sg14
I27
sg15
Nsbag0
(g9
g2
Ntp97
Rp98
(dp99
g13
F24.593960202271518
sg14
I28
sg15
Nsbag0
(g9
g2
Ntp100
Rp101
(dp102
g13
F26.43011538319819
sg14
I29
sg15
Nsbag0
(g9
g2
Ntp103
Rp104
(dp105
g13
F31.915212554834056
sg14
I30
sg15
Nsbag0
(g9
g2
Ntp106
Rp107
(dp108
g13
F21.217307727918495
sg14
I31
sg15
Nsbag0
(g9
g2
Ntp109
Rp110
(dp111
g13
F19.966616321351736
sg14
I32
sg15
Nsbag0
(g9
g2
Ntp112
Rp113
(dp114
g13
F24.94745650740712
sg14
I33
sg15
Nsbag0
(g9
g2
Ntp115
Rp116
(dp117
g13
F31.838949793745403
sg14
I34
sg15
Nsbag0
(g9
g2
Ntp118
Rp119
(dp120
g13
F26.13090982066213
sg14
I35
sg15
Nsbag0
(g9
g2
Ntp121
Rp122
(dp123
g13
F38.24109881290352
sg14
I36
sg15
Nsbag0
(g9
g2
Ntp124
Rp125
(dp126
g13
F14.967907756832332
sg14
I37
sg15
Nsbag0
(g9
g2
Ntp127
Rp128
(dp129
g13
F14.754699987475306
sg14
I38
sg15
Nsbag0
(g9
g2
Ntp130
Rp131
(dp132
g13
F18.32774082866427
sg14
I39
sg15
NsbasS'adjList'
p133
(dp134
I0
(dp135
I3
F-0.8972294212745417
sI11
F-15.422129501632828
sI13
F5.546392313742697
sI19
F-11.516832700849282
sI22
F-6.990221863455904
sI24
F7.013918402881824
sI26
F-5.695400912839659
sI29
F-2.6141287738031096
ssI1
(dp136
I16
F-9.532732724796269
ssI2
(dp137
I32
F-16.151119455108685
sI33
F-11.1702792690533
sI37
F-21.14982801962809
sI10
F-21.84285175356497
sI13
F-1.5270993057164262
sI14
F-17.35884691964471
sI19
F-18.590324320308405
sI26
F-12.768892532298782
ssI3
(dp138
I1
F-2.4422512785637736
sI35
F-2.016104915064627
sI36
F10.094084077176767
sI9
F-3.1932854449502663
sI18
F-1.0724726077814495
sI23
F-2.3315825318006276
ssI4
(dp139
I34
F10.208065752364764
sI35
F4.50002577928149
sI20
F-7.140752778181108
sI10
F-7.35600001848519
sI30
F10.284328513453417
ssI6
(dp140
I15
F3.8921653999486097
ssI7
(dp141
I12
F-9.53923962008652
sI22
F-13.20516869057392
ssI8
(dp142
I24
F15.342498186542684
sI1
F4.989099083822545
sI37
F-5.747756616508106
ssI9
(dp143
I27
F-9.849241344219106
ssI11
(dp144
I16
F2.549916076998244
ssI12
(dp145
I33
F-0.7724948566256735
sI2
F10.397784412427626
sI39
F-7.392210535368527
ssI13
(dp146
I31
F-13.3733287428255
ssI14
(dp147
I21
F0.5839196080637343
sI7
F16.500302127303602
ssI16
(dp148
I26
F7.176812511794925
sI36
F22.06906808053681
ssI17
(dp149
I12
F-4.516711842464133
sI27
F-15.132175259939544
sI4
F-8.605779165116289
sI22
F-8.182640912951534
sI14
F-11.477774349681216
ssI20
(dp150
I21
F4.852677201679915
ssI21
(dp151
I19
F-1.8153970087274303
ssI22
(dp152
I32
F-2.0874059721936575
sI11
F-8.431907638176924
sI5
F-10.506586637489308
ssI23
(dp153
I25
F-11.772991492540209
sI20
F-11.325300940726597
sI6
F4.773780054827405
ssI24
(dp154
I2
F0.05957321657729864
sI27
F-20.953674613325738
sI6
F-5.468950301129588
ssI25
(dp155
I32
F5.9241756099658165
sI9
F10.91128857939057
sI28
F10.551519490885598
ssI26
(dp156
I12
F2.371108119871156
sI4
F-1.7179592027809996
sI38
F-8.594143256686333
sI28
F1.2451169581098789
ssI27
(dp157
I16
F1.06754278580933
sI5
F-3.5570522905012982
ssI28
(dp158
I5
F-13.046524546215432
ssI29
(dp159
I4
F-4.799231341817549
sI5
F-14.882679727142103
sI38
F-11.675415395722883
sI13
F8.160521087545806
sI17
F3.8065478232987395
sI25
F-12.387674671812269
ssI30
(dp160
I25
F-17.872771843448135
sI20
F-17.425081291634527
sI37
F-16.947304798001724
ssI31
(dp161
I1
F4.487455729244488
sI2
F14.900428048541926
sI9
F3.736421562857995
ssI32
(dp162
I38
F-5.211916333876431
ssI33
(dp163
I34
F6.891493286338282
sI11
F-11.325341852038651
sI36
F13.293642305496402
ssI34
(dp164
I14
F-13.08006093692969
sI15
F2.6424278649567405
ssI35
(dp165
I24
F9.927252739220993
sI34
F5.708039973083274
ssI36
(dp166
I11
F-24.618984157535053
sI12
F-12.521147448870728
sI13
F-3.6504623421595284
sI23
F-12.425666608977394
ssI38
(dp167
I8
F5.960964385865132
sI9
F10.199029303301185
ssI39
(dp168
I8
F2.3879235446761697
sI17
F11.90892237783266
sI20
F-3.837609565464737
sI24
F17.730421731218854
sI9
F6.625988462112222
sssb.